; Function Attrs: mustprogress nofree nosync nounwind willreturn memory(read, inaccessiblemem: none) uwtable
define hidden noundef zeroext i1 @_ZN12seq_rewriter19ite_bdds_compatibleEP4exprS1_(ptr noundef nonnull readnone align 8 captures(none) dereferenceable(497) %0, ptr noundef readonly captures(none) %1, ptr noundef readonly captures(none) %2) local_unnamed_addr #11 align 2 {
  br label %tailrecurse

tailrecurse:                                      ; preds = %45, %3
  %.tr30 = phi ptr [ %1, %3 ], [ %25, %45 ]
  %.tr31 = phi ptr [ %2, %3 ], [ %47, %45 ]
  %4 = getelementptr inbounds nuw i8, ptr %.tr30, i64 4
  %5 = load i32, ptr %4, align 4
  %6 = and i32 %5, 65535
  %7 = icmp eq i32 %6, 0
  br i1 %7, label %8, label %_ZNK11ast_manager6is_iteEPK4expr.exit.thread

8:                                                ; preds = %tailrecurse
  %9 = getelementptr inbounds nuw i8, ptr %.tr30, i64 16
  %10 = load ptr, ptr %9, align 8, !tbaa !202
  %11 = getelementptr inbounds nuw i8, ptr %10, i64 24
  %12 = load ptr, ptr %11, align 8, !tbaa !207
  %.not.i.i.i.i.i = icmp eq ptr %12, null
  br i1 %.not.i.i.i.i.i, label %_ZNK11ast_manager6is_iteEPK4expr.exit.thread, label %_ZNK11ast_manager6is_iteEPK4expr.exit.i

_ZNK11ast_manager6is_iteEPK4expr.exit.i:          ; preds = %8
  %13 = load i32, ptr %12, align 8, !tbaa !210
  %14 = icmp eq i32 %13, 0
  %15 = getelementptr inbounds nuw i8, ptr %12, i64 4
  %16 = load i32, ptr %15, align 4
  %17 = icmp eq i32 %16, 4
  %18 = select i1 %14, i1 %17, i1 false
  br i1 %18, label %19, label %_ZNK11ast_manager6is_iteEPK4expr.exit

19:                                               ; preds = %_ZNK11ast_manager6is_iteEPK4expr.exit.i
  %20 = getelementptr inbounds nuw i8, ptr %.tr30, i64 32
  %21 = load ptr, ptr %20, align 8, !tbaa !3
  %22 = getelementptr inbounds nuw i8, ptr %.tr30, i64 40
  %23 = load ptr, ptr %22, align 8, !tbaa !3
  %24 = getelementptr inbounds nuw i8, ptr %.tr30, i64 48
  %25 = load ptr, ptr %24, align 8, !tbaa !3
  %26 = getelementptr inbounds nuw i8, ptr %.tr31, i64 4
  %27 = load i32, ptr %26, align 4
  %28 = and i32 %27, 65535
  %29 = icmp eq i32 %28, 0
  br i1 %29, label %30, label %_ZNK11ast_manager6is_iteEPK4expr.exit

30:                                               ; preds = %19
  %31 = getelementptr inbounds nuw i8, ptr %.tr31, i64 16
  %32 = load ptr, ptr %31, align 8, !tbaa !202
  %33 = getelementptr inbounds nuw i8, ptr %32, i64 24
  %34 = load ptr, ptr %33, align 8, !tbaa !207
  %.not.i.i.i.i.i6 = icmp eq ptr %34, null
  br i1 %.not.i.i.i.i.i6, label %_ZNK11ast_manager6is_iteEPK4expr.exit, label %_ZNK11ast_manager6is_iteEPK4expr.exit.i7

_ZNK11ast_manager6is_iteEPK4expr.exit.i7:         ; preds = %30
  %35 = load i32, ptr %34, align 8, !tbaa !210
  %36 = icmp eq i32 %35, 0
  %37 = getelementptr inbounds nuw i8, ptr %34, i64 4
  %38 = load i32, ptr %37, align 4
  %39 = icmp eq i32 %38, 4
  %40 = select i1 %36, i1 %39, i1 false
  br i1 %40, label %41, label %_ZNK11ast_manager6is_iteEPK4expr.exit

41:                                               ; preds = %_ZNK11ast_manager6is_iteEPK4expr.exit.i7
  %42 = getelementptr inbounds nuw i8, ptr %.tr31, i64 32
  %43 = load ptr, ptr %42, align 8, !tbaa !3
  %44 = icmp eq ptr %21, %43
  br i1 %44, label %45, label %_ZNK11ast_manager6is_iteEPK4expr.exit10.thread

45:                                               ; preds = %41
  %46 = getelementptr inbounds nuw i8, ptr %.tr31, i64 48
  %47 = load ptr, ptr %46, align 8, !tbaa !3
  %48 = getelementptr inbounds nuw i8, ptr %.tr31, i64 40
  %49 = load ptr, ptr %48, align 8, !tbaa !3
  %50 = tail call noundef zeroext i1 @_ZN12seq_rewriter19ite_bdds_compatibleEP4exprS1_(ptr noundef nonnull align 8 dereferenceable(497) %0, ptr noundef %23, ptr noundef %49)
  br i1 %50, label %tailrecurse, label %_ZNK11ast_manager6is_iteEPK4expr.exit10.thread

_ZNK11ast_manager6is_iteEPK4expr.exit:            ; preds = %_ZNK11ast_manager6is_iteEPK4expr.exit.i, %_ZNK11ast_manager6is_iteEPK4expr.exit.i7, %19, %30
  %51 = load i32, ptr %12, align 8, !tbaa !210
  %52 = icmp eq i32 %51, 0
  %53 = getelementptr inbounds nuw i8, ptr %12, i64 4
  %54 = load i32, ptr %53, align 4
  %55 = icmp eq i32 %54, 4
  %56 = select i1 %52, i1 %55, i1 false
  br i1 %56, label %_ZNK11ast_manager6is_iteEPK4expr.exit10.thread, label %_ZNK11ast_manager6is_iteEPK4expr.exit.thread

_ZNK11ast_manager6is_iteEPK4expr.exit.thread:     ; preds = %tailrecurse, %8, %_ZNK11ast_manager6is_iteEPK4expr.exit
  %57 = getelementptr inbounds nuw i8, ptr %.tr31, i64 4
  %58 = load i32, ptr %57, align 4
  %59 = and i32 %58, 65535
  %60 = icmp eq i32 %59, 0
  br i1 %60, label %61, label %_ZNK11ast_manager6is_iteEPK4expr.exit10.thread

61:                                               ; preds = %_ZNK11ast_manager6is_iteEPK4expr.exit.thread
  %62 = getelementptr inbounds nuw i8, ptr %.tr31, i64 16
  %63 = load ptr, ptr %62, align 8, !tbaa !202
  %64 = getelementptr inbounds nuw i8, ptr %63, i64 24
  %65 = load ptr, ptr %64, align 8, !tbaa !207
  %.not.i.i.i.i9 = icmp eq ptr %65, null
  br i1 %.not.i.i.i.i9, label %_ZNK11ast_manager6is_iteEPK4expr.exit10.thread, label %_ZNK11ast_manager6is_iteEPK4expr.exit10

_ZNK11ast_manager6is_iteEPK4expr.exit10:          ; preds = %61
  %66 = load i32, ptr %65, align 8, !tbaa !210
  %67 = icmp eq i32 %66, 0
  %68 = getelementptr inbounds nuw i8, ptr %65, i64 4
  %69 = load i32, ptr %68, align 4
  %70 = icmp eq i32 %69, 4
  %71 = select i1 %67, i1 %70, i1 false
  %cond.fr = freeze i1 %71
  %not.cond.fr = xor i1 %cond.fr, true
  br label %_ZNK11ast_manager6is_iteEPK4expr.exit10.thread

_ZNK11ast_manager6is_iteEPK4expr.exit10.thread:   ; preds = %41, %45, %_ZNK11ast_manager6is_iteEPK4expr.exit10, %61, %_ZNK11ast_manager6is_iteEPK4expr.exit.thread, %_ZNK11ast_manager6is_iteEPK4expr.exit
  %.0 = phi i1 [ false, %_ZNK11ast_manager6is_iteEPK4expr.exit ], [ true, %_ZNK11ast_manager6is_iteEPK4expr.exit.thread ], [ true, %61 ], [ %not.cond.fr, %_ZNK11ast_manager6is_iteEPK4expr.exit10 ], [ false, %45 ], [ false, %41 ]
  ret i1 %.0
}